target datalayout = "e-m:e-p270:32:32-p271:32:32-p272:64:64-i64:64-i128:128-f80:128-n8:16:32:64-S128"
target triple = "x86_64-pc-linux-gnu"

%"class.icu_77::SpoofImpl" = type <{ %"class.icu_77::UObject", %"class.icu_77::IcuCApiHelper", i32, ptr, ptr, ptr, i32, [4 x i8] }>
%"class.icu_77::UObject" = type { ptr }
%"class.icu_77::IcuCApiHelper" = type { i32 }
%"class.icu_77::UnicodeString" = type { %"class.icu_77::Replaceable", %"union.icu_77::UnicodeString::StackBufferOrFields" }
%"class.icu_77::Replaceable" = type { %"class.icu_77::UObject" }
%"union.icu_77::UnicodeString::StackBufferOrFields" = type { %struct.anon.0, [32 x i8] }
%struct.anon.0 = type { i16, i32, i32, ptr }
%struct.anon = type { i16, [27 x i16] }

@_ZTVN6icu_777UObjectE = available_externally unnamed_addr constant { [5 x ptr] } { [5 x ptr] [ptr null, ptr @_ZTIN6icu_777UObjectE, ptr @_ZN6icu_777UObjectD1Ev, ptr @_ZN6icu_777UObjectD0Ev, ptr @_ZNK6icu_777UObject17getDynamicClassIDEv] }, align 8

; Function Attrs: inlinehint mustprogress nounwind uwtable
define linkonce_odr void @_ZN6icu_777UObjectC2Ev(ptr noundef nonnull align 8 dereferenceable(8) %0) unnamed_addr #2 comdat align 2 {
  %2 = alloca ptr, align 8
  store ptr %0, ptr %2, align 8, !tbaa !21
  %3 = load ptr, ptr %2, align 8
  store ptr getelementptr inbounds inrange(-16, 24) ({ [5 x ptr] }, ptr @_ZTVN6icu_777UObjectE, i32 0, i32 0, i32 2), ptr %3, align 8, !tbaa !11
  ret void
}

; Function Attrs: inlinehint mustprogress nounwind uwtable
define linkonce_odr noundef i32 @_ZNK6icu_7713UnicodeString14getShortLengthEv(ptr noundef nonnull align 8 dereferenceable(64) %0) #2 comdat align 2 {
  %2 = alloca ptr, align 8
  store ptr %0, ptr %2, align 8, !tbaa !58
  %3 = load ptr, ptr %2, align 8
  %4 = getelementptr inbounds nuw %"class.icu_77::UnicodeString", ptr %3, i32 0, i32 1
  %5 = getelementptr inbounds nuw %struct.anon.0, ptr %4, i32 0, i32 0
  %6 = load i16, ptr %5, align 8, !tbaa !46
  %7 = sext i16 %6 to i32
  %8 = ashr i32 %7, 5
  ret i32 %8
}

; Function Attrs: inlinehint mustprogress nounwind uwtable
define linkonce_odr noundef signext i8 @_ZNK6icu_7713UnicodeString14hasShortLengthEv(ptr noundef nonnull align 8 dereferenceable(64) %0) #2 comdat align 2 {
  %2 = alloca ptr, align 8
  store ptr %0, ptr %2, align 8, !tbaa !58
  %3 = load ptr, ptr %2, align 8
  %4 = getelementptr inbounds nuw %"class.icu_77::UnicodeString", ptr %3, i32 0, i32 1
  %5 = getelementptr inbounds nuw %struct.anon.0, ptr %4, i32 0, i32 0
  %6 = load i16, ptr %5, align 8, !tbaa !46
  %7 = sext i16 %6 to i32
  %8 = icmp sge i32 %7, 0
  %9 = zext i1 %8 to i8
  ret i8 %9
}

; Function Attrs: inlinehint mustprogress nounwind uwtable
define linkonce_odr void @_ZN6icu_7711ReplaceableC2Ev(ptr noundef nonnull align 8 dereferenceable(8) %0) unnamed_addr #2 comdat align 2 {
  %2 = alloca ptr, align 8
  store ptr %0, ptr %2, align 8, !tbaa !128
  %3 = load ptr, ptr %2, align 8
  call void @_ZN6icu_777UObjectC2Ev(ptr noundef nonnull align 8 dereferenceable(8) %3) #15
  store ptr getelementptr inbounds inrange(-16, 88) ({ [13 x ptr] }, ptr @_ZTVN6icu_7711ReplaceableE, i32 0, i32 0, i32 2), ptr %3, align 8, !tbaa !11
  ret void
}

; Function Attrs: inlinehint mustprogress uwtable
define linkonce_odr noundef i32 @_ZNK6icu_7713UnicodeString6lengthEv(ptr noundef nonnull align 8 dereferenceable(64) %0) #8 comdat align 2 {
  %2 = alloca ptr, align 8
  store ptr %0, ptr %2, align 8, !tbaa !58
  %3 = load ptr, ptr %2, align 8
  %4 = call noundef signext i8 @_ZNK6icu_7713UnicodeString14hasShortLengthEv(ptr noundef nonnull align 8 dereferenceable(64) %3)
  %5 = icmp ne i8 %4, 0
  br i1 %5, label %6, label %8

6:                                                ; preds = %1
  %7 = call noundef i32 @_ZNK6icu_7713UnicodeString14getShortLengthEv(ptr noundef nonnull align 8 dereferenceable(64) %3)
  br label %12

8:                                                ; preds = %1
  %9 = getelementptr inbounds nuw %"class.icu_77::UnicodeString", ptr %3, i32 0, i32 1
  %10 = getelementptr inbounds nuw %struct.anon.0, ptr %9, i32 0, i32 1
  %11 = load i32, ptr %10, align 4, !tbaa !46
  br label %12

12:                                               ; preds = %8, %6
  %13 = phi i32 [ %7, %6 ], [ %11, %8 ]
  ret i32 %13
}

; Function Attrs: inlinehint mustprogress uwtable
define linkonce_odr void @_ZN6icu_7713UnicodeStringC2Ev(ptr noundef nonnull align 8 dereferenceable(64) %0) unnamed_addr #8 comdat align 2 {
  %2 = alloca ptr, align 8
  store ptr %0, ptr %2, align 8, !tbaa !58
  %3 = load ptr, ptr %2, align 8
  call void @_ZN6icu_7711ReplaceableC2Ev(ptr noundef nonnull align 8 dereferenceable(8) %3)
  store ptr getelementptr inbounds inrange(-16, 88) ({ [13 x ptr] }, ptr @_ZTVN6icu_7713UnicodeStringE, i32 0, i32 0, i32 2), ptr %3, align 8, !tbaa !11
  %4 = getelementptr inbounds nuw %"class.icu_77::UnicodeString", ptr %3, i32 0, i32 1
  %5 = getelementptr inbounds nuw %struct.anon, ptr %4, i32 0, i32 0
  store i16 2, ptr %5, align 8, !tbaa !46
  ret void
}

; Function Attrs: inlinehint mustprogress uwtable
define internal noundef zeroext i1 @_ZN6icu_77L42isIllegalCombiningDotLeadCharacterNoLookupEi(i32 noundef %0) #8 {
  %2 = alloca i32, align 4
  store i32 %0, ptr %2, align 4, !tbaa !48
  %3 = load i32, ptr %2, align 4, !tbaa !48
  %4 = icmp eq i32 %3, 105
  br i1 %4, label %21, label %5

5:                                                ; preds = %1
  %6 = load i32, ptr %2, align 4, !tbaa !48
  %7 = icmp eq i32 %6, 106
  br i1 %7, label %21, label %8

8:                                                ; preds = %5
  %9 = load i32, ptr %2, align 4, !tbaa !48
  %10 = icmp eq i32 %9, 305
  br i1 %10, label %21, label %11

11:                                               ; preds = %8
  %12 = load i32, ptr %2, align 4, !tbaa !48
  %13 = icmp eq i32 %12, 567
  br i1 %13, label %21, label %14

14:                                               ; preds = %11
  %15 = load i32, ptr %2, align 4, !tbaa !48
  %16 = icmp eq i32 %15, 108
  br i1 %16, label %21, label %17

17:                                               ; preds = %14
  %18 = load i32, ptr %2, align 4, !tbaa !48
  %19 = call signext i8 @u_hasBinaryProperty_77(i32 noundef %18, i32 noundef 27)
  %20 = icmp ne i8 %19, 0
  br label %21

21:                                               ; preds = %17, %14, %11, %8, %5, %1
  %22 = phi i1 [ true, %14 ], [ true, %11 ], [ true, %8 ], [ true, %5 ], [ true, %1 ], [ %20, %17 ]
  ret i1 %22
}

; Function Attrs: mustprogress uwtable
define noundef zeroext i1 @_ZNK6icu_779SpoofImpl34isIllegalCombiningDotLeadCharacterEi(ptr noundef nonnull align 8 dereferenceable(44) %0, i32 noundef %1) #1 align 2 personality ptr @__gxx_personality_v0 {
  %3 = alloca i1, align 1
  %4 = alloca ptr, align 8
  %5 = alloca i32, align 4
  %6 = alloca %"class.icu_77::UnicodeString", align 8
  %7 = alloca ptr, align 8
  %8 = alloca i32, align 4
  %9 = alloca i32, align 4
  %10 = alloca i32, align 4
  store ptr %0, ptr %4, align 8, !tbaa !3
  store i32 %1, ptr %5, align 4, !tbaa !48
  %11 = load ptr, ptr %4, align 8
  %12 = load i32, ptr %5, align 4, !tbaa !48
  %13 = call noundef zeroext i1 @_ZN6icu_77L42isIllegalCombiningDotLeadCharacterNoLookupEi(i32 noundef %12)
  br i1 %13, label %14, label %15

14:                                               ; preds = %2
  store i1 true, ptr %3, align 1
  br label %46

15:                                               ; preds = %2
  call void @llvm.lifetime.start.p0(i64 64, ptr %6) #15
  call void @_ZN6icu_7713UnicodeStringC2Ev(ptr noundef nonnull align 8 dereferenceable(64) %6)
  %16 = getelementptr inbounds nuw %"class.icu_77::SpoofImpl", ptr %11, i32 0, i32 3
  %17 = load ptr, ptr %16, align 8, !tbaa !13
  %18 = load i32, ptr %5, align 4, !tbaa !48
  %19 = invoke noundef i32 @_ZNK6icu_779SpoofData16confusableLookupEiRNS_13UnicodeStringE(ptr noundef nonnull align 8 dereferenceable(56) %17, i32 noundef %18, ptr noundef nonnull align 8 dereferenceable(64) %6)
          to label %20 unwind label %35

20:                                               ; preds = %15
  call void @llvm.lifetime.start.p0(i64 4, ptr %9) #15
  %21 = invoke noundef i32 @_ZNK6icu_7713UnicodeString6lengthEv(ptr noundef nonnull align 8 dereferenceable(64) %6)
          to label %22 unwind label %39

22:                                               ; preds = %20
  %23 = invoke noundef i32 @_ZNK6icu_7713UnicodeString11moveIndex32Eii(ptr noundef nonnull align 8 dereferenceable(64) %6, i32 noundef %21, i32 noundef -1)
          to label %24 unwind label %39

24:                                               ; preds = %22
  %25 = invoke noundef i32 @_ZNK6icu_7713UnicodeString8char32AtEi(ptr noundef nonnull align 8 dereferenceable(64) %6, i32 noundef %23)
          to label %26 unwind label %39

26:                                               ; preds = %24
  store i32 %25, ptr %9, align 4, !tbaa !48
  %27 = load i32, ptr %9, align 4, !tbaa !48
  %28 = load i32, ptr %5, align 4, !tbaa !48
  %29 = icmp ne i32 %27, %28
  br i1 %29, label %30, label %43

30:                                               ; preds = %26
  %31 = load i32, ptr %9, align 4, !tbaa !48
  %32 = invoke noundef zeroext i1 @_ZN6icu_77L42isIllegalCombiningDotLeadCharacterNoLookupEi(i32 noundef %31)
          to label %33 unwind label %39

33:                                               ; preds = %30
  br i1 %32, label %34, label %43

34:                                               ; preds = %33
  store i1 true, ptr %3, align 1
  store i32 1, ptr %10, align 4
  br label %44

35:                                               ; preds = %15
  %36 = landingpad { ptr, i32 }
          cleanup
  %37 = extractvalue { ptr, i32 } %36, 0
  store ptr %37, ptr %7, align 8
  %38 = extractvalue { ptr, i32 } %36, 1
  store i32 %38, ptr %8, align 4
  br label %45

39:                                               ; preds = %30, %24, %22, %20
  %40 = landingpad { ptr, i32 }
          cleanup
  %41 = extractvalue { ptr, i32 } %40, 0
  store ptr %41, ptr %7, align 8
  %42 = extractvalue { ptr, i32 } %40, 1
  store i32 %42, ptr %8, align 4
  call void @llvm.lifetime.end.p0(i64 4, ptr %9) #15
  br label %45

43:                                               ; preds = %33, %26
  store i1 false, ptr %3, align 1
  store i32 1, ptr %10, align 4
  br label %44

44:                                               ; preds = %43, %34
  call void @llvm.lifetime.end.p0(i64 4, ptr %9) #15
  call void @_ZN6icu_7713UnicodeStringD1Ev(ptr noundef nonnull align 8 dereferenceable(64) %6) #15
  call void @llvm.lifetime.end.p0(i64 64, ptr %6) #15
  br label %46

45:                                               ; preds = %39, %35
  call void @_ZN6icu_7713UnicodeStringD1Ev(ptr noundef nonnull align 8 dereferenceable(64) %6) #15
  call void @llvm.lifetime.end.p0(i64 64, ptr %6) #15
  br label %48

46:                                               ; preds = %44, %14
  %47 = load i1, ptr %3, align 1
  ret i1 %47

48:                                               ; preds = %45
  %49 = load ptr, ptr %7, align 8
  %50 = load i32, ptr %8, align 4
  %51 = insertvalue { ptr, i32 } poison, ptr %49, 0
  %52 = insertvalue { ptr, i32 } %51, i32 %50, 1
  resume { ptr, i32 } %52
}