; Function Attrs: mustprogress uwtable
define noundef zeroext i1 @_ZNK6icu_779SpoofImpl34isIllegalCombiningDotLeadCharacterEi(ptr noundef nonnull readonly align 8 captures(none) dereferenceable(44) %0, i32 noundef %1) local_unnamed_addr #1 align 2 personality ptr @__gxx_personality_v0 {
  %3 = alloca %"class.icu_77::UnicodeString", align 8
  switch i32 %1, label %_ZN6icu_77L42isIllegalCombiningDotLeadCharacterNoLookupEi.exit [
    i32 567, label %_ZN6icu_77L42isIllegalCombiningDotLeadCharacterNoLookupEi.exit.thread
    i32 305, label %_ZN6icu_77L42isIllegalCombiningDotLeadCharacterNoLookupEi.exit.thread
    i32 108, label %_ZN6icu_77L42isIllegalCombiningDotLeadCharacterNoLookupEi.exit.thread
    i32 106, label %_ZN6icu_77L42isIllegalCombiningDotLeadCharacterNoLookupEi.exit.thread
    i32 105, label %_ZN6icu_77L42isIllegalCombiningDotLeadCharacterNoLookupEi.exit.thread
  ]

_ZN6icu_77L42isIllegalCombiningDotLeadCharacterNoLookupEi.exit: ; preds = %2
  %4 = tail call signext i8 @u_hasBinaryProperty_77(i32 noundef %1, i32 noundef 27)
  %.not13 = icmp eq i8 %4, 0
  br i1 %.not13, label %5, label %_ZN6icu_77L42isIllegalCombiningDotLeadCharacterNoLookupEi.exit.thread

5:                                                ; preds = %_ZN6icu_77L42isIllegalCombiningDotLeadCharacterNoLookupEi.exit
  call void @llvm.lifetime.start.p0(i64 64, ptr nonnull %3) #21
  store ptr getelementptr inbounds nuw inrange(-16, 88) (i8, ptr @_ZTVN6icu_7713UnicodeStringE, i64 16), ptr %3, align 8, !tbaa !8
  %6 = getelementptr inbounds nuw i8, ptr %3, i64 8
  store i16 2, ptr %6, align 8, !tbaa !38
  %7 = getelementptr inbounds nuw i8, ptr %0, i64 16
  %8 = load ptr, ptr %7, align 8, !tbaa !23
  %9 = invoke noundef i32 @_ZNK6icu_779SpoofData16confusableLookupEiRNS_13UnicodeStringE(ptr noundef nonnull align 8 dereferenceable(56) %8, i32 noundef %1, ptr noundef nonnull align 8 dereferenceable(64) %3)
          to label %10 unwind label %25

10:                                               ; preds = %5
  %11 = load i16, ptr %6, align 8, !tbaa !38
  %12 = icmp slt i16 %11, 0
  %13 = ashr i16 %11, 5
  %14 = sext i16 %13 to i32
  %15 = getelementptr inbounds nuw i8, ptr %3, i64 12
  %16 = load i32, ptr %15, align 4
  %17 = select i1 %12, i32 %16, i32 %14
  %18 = invoke noundef i32 @_ZNK6icu_7713UnicodeString11moveIndex32Eii(ptr noundef nonnull align 8 dereferenceable(64) %3, i32 noundef %17, i32 noundef -1)
          to label %19 unwind label %27

19:                                               ; preds = %10
  %20 = invoke noundef i32 @_ZNK6icu_7713UnicodeString8char32AtEi(ptr noundef nonnull align 8 dereferenceable(64) %3, i32 noundef %18)
          to label %21 unwind label %27

21:                                               ; preds = %19
  %.not = icmp eq i32 %20, %1
  br i1 %.not, label %29, label %22

22:                                               ; preds = %21
  switch i32 %20, label %23 [
    i32 567, label %_ZN6icu_77L42isIllegalCombiningDotLeadCharacterNoLookupEi.exit12.thread
    i32 305, label %_ZN6icu_77L42isIllegalCombiningDotLeadCharacterNoLookupEi.exit12.thread
    i32 108, label %_ZN6icu_77L42isIllegalCombiningDotLeadCharacterNoLookupEi.exit12.thread
    i32 106, label %_ZN6icu_77L42isIllegalCombiningDotLeadCharacterNoLookupEi.exit12.thread
    i32 105, label %_ZN6icu_77L42isIllegalCombiningDotLeadCharacterNoLookupEi.exit12.thread
  ]

23:                                               ; preds = %22
  %24 = invoke signext i8 @u_hasBinaryProperty_77(i32 noundef %20, i32 noundef 27)
          to label %_ZN6icu_77L42isIllegalCombiningDotLeadCharacterNoLookupEi.exit12 unwind label %27

_ZN6icu_77L42isIllegalCombiningDotLeadCharacterNoLookupEi.exit12: ; preds = %23
  %.not14 = icmp eq i8 %24, 0
  br i1 %.not14, label %29, label %_ZN6icu_77L42isIllegalCombiningDotLeadCharacterNoLookupEi.exit12.thread

25:                                               ; preds = %5
  %26 = landingpad { ptr, i32 }
          cleanup
  br label %30

27:                                               ; preds = %23, %19, %10
  %28 = landingpad { ptr, i32 }
          cleanup
  br label %30

29:                                               ; preds = %_ZN6icu_77L42isIllegalCombiningDotLeadCharacterNoLookupEi.exit12, %21
  br label %_ZN6icu_77L42isIllegalCombiningDotLeadCharacterNoLookupEi.exit12.thread

_ZN6icu_77L42isIllegalCombiningDotLeadCharacterNoLookupEi.exit12.thread: ; preds = %22, %22, %22, %22, %22, %_ZN6icu_77L42isIllegalCombiningDotLeadCharacterNoLookupEi.exit12, %29
  %.1 = phi i1 [ false, %29 ], [ true, %_ZN6icu_77L42isIllegalCombiningDotLeadCharacterNoLookupEi.exit12 ], [ true, %22 ], [ true, %22 ], [ true, %22 ], [ true, %22 ], [ true, %22 ]
  call void @_ZN6icu_7713UnicodeStringD1Ev(ptr noundef nonnull align 8 dereferenceable(64) %3) #21
  call void @llvm.lifetime.end.p0(i64 64, ptr nonnull %3) #21
  br label %_ZN6icu_77L42isIllegalCombiningDotLeadCharacterNoLookupEi.exit.thread

30:                                               ; preds = %27, %25
  %.pn = phi { ptr, i32 } [ %28, %27 ], [ %26, %25 ]
  call void @_ZN6icu_7713UnicodeStringD1Ev(ptr noundef nonnull align 8 dereferenceable(64) %3) #21
  call void @llvm.lifetime.end.p0(i64 64, ptr nonnull %3) #21
  resume { ptr, i32 } %.pn

_ZN6icu_77L42isIllegalCombiningDotLeadCharacterNoLookupEi.exit.thread: ; preds = %2, %2, %2, %2, %2, %_ZN6icu_77L42isIllegalCombiningDotLeadCharacterNoLookupEi.exit, %_ZN6icu_77L42isIllegalCombiningDotLeadCharacterNoLookupEi.exit12.thread
  %.0 = phi i1 [ %.1, %_ZN6icu_77L42isIllegalCombiningDotLeadCharacterNoLookupEi.exit12.thread ], [ true, %_ZN6icu_77L42isIllegalCombiningDotLeadCharacterNoLookupEi.exit ], [ true, %2 ], [ true, %2 ], [ true, %2 ], [ true, %2 ], [ true, %2 ]
  ret i1 %.0
}